target datalayout = "e-m:e-p270:32:32-p271:32:32-p272:64:64-i64:64-i128:128-f80:128-n8:16:32:64-S128"
target triple = "x86_64-pc-linux-gnu"

%struct.SlruSharedData = type { i32, ptr, ptr, ptr, ptr, ptr, ptr, ptr, ptr, ptr, i32, %struct.pg_atomic_uint64, i32 }
%struct.pg_atomic_uint64 = type { i64 }
%struct.SlruCtlData = type { ptr, i16, i8, i32, ptr, [64 x i8] }

@slru_errcause = internal global i32 0, align 4
@slru_errno = internal global i32 0, align 4
@.str.5 = private unnamed_addr constant [11 x i8] c"%s/%015llX\00", align 1
@.str.6 = private unnamed_addr constant [8 x i8] c"%s/%04X\00", align 1

; Function Attrs: inlinehint nounwind uwtable
define internal i32 @SlruFileName(ptr noundef %0, ptr noundef %1, i64 noundef %2) #4 {
  %4 = alloca i32, align 4
  %5 = alloca ptr, align 8
  %6 = alloca ptr, align 8
  %7 = alloca i64, align 8
  store ptr %0, ptr %5, align 8
  store ptr %1, ptr %6, align 8
  store i64 %2, ptr %7, align 8
  %8 = load ptr, ptr %5, align 8
  %9 = getelementptr inbounds nuw %struct.SlruCtlData, ptr %8, i32 0, i32 2
  %10 = load i8, ptr %9, align 2, !range !4, !noundef !5
  %11 = trunc i8 %10 to i1
  br i1 %11, label %12, label %19

12:                                               ; preds = %3
  %13 = load ptr, ptr %6, align 8
  %14 = load ptr, ptr %5, align 8
  %15 = getelementptr inbounds nuw %struct.SlruCtlData, ptr %14, i32 0, i32 5
  %16 = getelementptr inbounds [64 x i8], ptr %15, i64 0, i64 0
  %17 = load i64, ptr %7, align 8
  %18 = call i32 (ptr, i64, ptr, ...) @pg_snprintf(ptr noundef %13, i64 noundef 1024, ptr noundef @.str.5, ptr noundef %16, i64 noundef %17)
  store i32 %18, ptr %4, align 4
  br label %27

19:                                               ; preds = %3
  %20 = load ptr, ptr %6, align 8
  %21 = load ptr, ptr %5, align 8
  %22 = getelementptr inbounds nuw %struct.SlruCtlData, ptr %21, i32 0, i32 5
  %23 = getelementptr inbounds [64 x i8], ptr %22, i64 0, i64 0
  %24 = load i64, ptr %7, align 8
  %25 = trunc i64 %24 to i32
  %26 = call i32 (ptr, i64, ptr, ...) @pg_snprintf(ptr noundef %20, i64 noundef 1024, ptr noundef @.str.6, ptr noundef %23, i32 noundef %25)
  store i32 %26, ptr %4, align 4
  br label %27

27:                                               ; preds = %19, %12
  %28 = load i32, ptr %4, align 4
  ret i32 %28
}

; Function Attrs: nounwind uwtable
define dso_local zeroext i1 @SimpleLruDoesPhysicalPageExist(ptr noundef %0, i64 noundef %1) #0 {
  %3 = alloca i1, align 1
  %4 = alloca ptr, align 8
  %5 = alloca i64, align 8
  %6 = alloca i64, align 8
  %7 = alloca i32, align 4
  %8 = alloca i32, align 4
  %9 = alloca [1024 x i8], align 16
  %10 = alloca i32, align 4
  %11 = alloca i8, align 1
  %12 = alloca i64, align 8
  %13 = alloca i32, align 4
  store ptr %0, ptr %4, align 8
  store i64 %1, ptr %5, align 8
  call void @llvm.lifetime.start.p0(i64 8, ptr %6) #9
  %14 = load i64, ptr %5, align 8
  %15 = sdiv i64 %14, 32
  store i64 %15, ptr %6, align 8
  call void @llvm.lifetime.start.p0(i64 4, ptr %7) #9
  %16 = load i64, ptr %5, align 8
  %17 = srem i64 %16, 32
  %18 = trunc i64 %17 to i32
  store i32 %18, ptr %7, align 4
  call void @llvm.lifetime.start.p0(i64 4, ptr %8) #9
  %19 = load i32, ptr %7, align 4
  %20 = mul i32 %19, 8192
  store i32 %20, ptr %8, align 4
  call void @llvm.lifetime.start.p0(i64 1024, ptr %9) #9
  call void @llvm.lifetime.start.p0(i64 4, ptr %10) #9
  call void @llvm.lifetime.start.p0(i64 1, ptr %11) #9
  call void @llvm.lifetime.start.p0(i64 8, ptr %12) #9
  %21 = load ptr, ptr %4, align 8
  %22 = getelementptr inbounds nuw %struct.SlruCtlData, ptr %21, i32 0, i32 0
  %23 = load ptr, ptr %22, align 8
  %24 = getelementptr inbounds nuw %struct.SlruSharedData, ptr %23, i32 0, i32 12
  %25 = load i32, ptr %24, align 8
  call void @pgstat_count_slru_page_exists(i32 noundef %25)
  %26 = load ptr, ptr %4, align 8
  %27 = getelementptr inbounds [1024 x i8], ptr %9, i64 0, i64 0
  %28 = load i64, ptr %6, align 8
  %29 = call i32 @SlruFileName(ptr noundef %26, ptr noundef %27, i64 noundef %28)
  %30 = getelementptr inbounds [1024 x i8], ptr %9, i64 0, i64 0
  %31 = call i32 @OpenTransientFile(ptr noundef %30, i32 noundef 0)
  store i32 %31, ptr %10, align 4
  %32 = load i32, ptr %10, align 4
  %33 = icmp slt i32 %32, 0
  br i1 %33, label %34, label %44

34:                                               ; preds = %2
  %35 = call ptr @__errno_location() #10
  %36 = load i32, ptr %35, align 4
  %37 = icmp eq i32 %36, 2
  br i1 %37, label %38, label %39

38:                                               ; preds = %34
  store i1 false, ptr %3, align 1
  store i32 1, ptr %13, align 4
  br label %69

39:                                               ; preds = %34
  store i32 0, ptr @slru_errcause, align 4
  %40 = call ptr @__errno_location() #10
  %41 = load i32, ptr %40, align 4
  store i32 %41, ptr @slru_errno, align 4
  %42 = load ptr, ptr %4, align 8
  %43 = load i64, ptr %5, align 8
  call void @SlruReportIOError(ptr noundef %42, i64 noundef %43, i32 noundef 0)
  br label %44

44:                                               ; preds = %39, %2
  %45 = load i32, ptr %10, align 4
  %46 = call i64 @lseek(i32 noundef %45, i64 noundef 0, i32 noundef 2) #9
  store i64 %46, ptr %12, align 8
  %47 = icmp slt i64 %46, 0
  br i1 %47, label %48, label %53

48:                                               ; preds = %44
  store i32 1, ptr @slru_errcause, align 4
  %49 = call ptr @__errno_location() #10
  %50 = load i32, ptr %49, align 4
  store i32 %50, ptr @slru_errno, align 4
  %51 = load ptr, ptr %4, align 8
  %52 = load i64, ptr %5, align 8
  call void @SlruReportIOError(ptr noundef %51, i64 noundef %52, i32 noundef 0)
  br label %53

53:                                               ; preds = %48, %44
  %54 = load i64, ptr %12, align 8
  %55 = load i32, ptr %8, align 4
  %56 = add i32 %55, 8192
  %57 = sext i32 %56 to i64
  %58 = icmp sge i64 %54, %57
  %59 = zext i1 %58 to i8
  store i8 %59, ptr %11, align 1
  %60 = load i32, ptr %10, align 4
  %61 = call i32 @CloseTransientFile(i32 noundef %60)
  %62 = icmp ne i32 %61, 0
  br i1 %62, label %63, label %66

63:                                               ; preds = %53
  store i32 5, ptr @slru_errcause, align 4
  %64 = call ptr @__errno_location() #10
  %65 = load i32, ptr %64, align 4
  store i32 %65, ptr @slru_errno, align 4
  store i1 false, ptr %3, align 1
  store i32 1, ptr %13, align 4
  br label %69

66:                                               ; preds = %53
  %67 = load i8, ptr %11, align 1, !range !4, !noundef !5
  %68 = trunc i8 %67 to i1
  store i1 %68, ptr %3, align 1
  store i32 1, ptr %13, align 4
  br label %69

69:                                               ; preds = %66, %63, %38
  call void @llvm.lifetime.end.p0(i64 8, ptr %12) #9
  call void @llvm.lifetime.end.p0(i64 1, ptr %11) #9
  call void @llvm.lifetime.end.p0(i64 4, ptr %10) #9
  call void @llvm.lifetime.end.p0(i64 1024, ptr %9) #9
  call void @llvm.lifetime.end.p0(i64 4, ptr %8) #9
  call void @llvm.lifetime.end.p0(i64 4, ptr %7) #9
  call void @llvm.lifetime.end.p0(i64 8, ptr %6) #9
  %70 = load i1, ptr %3, align 1
  ret i1 %70
}