; Function Attrs: nounwind uwtable
define dso_local zeroext i1 @SimpleLruDoesPhysicalPageExist(ptr noundef %0, i64 noundef %1) local_unnamed_addr #3 {
  %3 = alloca [1024 x i8], align 16
  %4 = sdiv i64 %1, 32
  %5 = srem i64 %1, 32
  %6 = trunc nsw i64 %5 to i32
  %7 = shl nsw i32 %6, 13
  call void @llvm.lifetime.start.p0(i64 1024, ptr nonnull %3) #15
  %8 = load ptr, ptr %0, align 8
  %9 = getelementptr inbounds nuw i8, ptr %8, i64 96
  %10 = load i32, ptr %9, align 8
  tail call void @pgstat_count_slru_page_exists(i32 noundef %10) #15
  %11 = getelementptr inbounds nuw i8, ptr %0, i64 10
  %12 = load i8, ptr %11, align 2, !range !4, !noundef !5
  %13 = trunc nuw i8 %12 to i1
  %14 = getelementptr inbounds nuw i8, ptr %0, i64 24
  br i1 %13, label %15, label %17

15:                                               ; preds = %2
  %16 = call i32 (ptr, i64, ptr, ...) @pg_snprintf(ptr noundef nonnull %3, i64 noundef 1024, ptr noundef nonnull @.str.5, ptr noundef nonnull %14, i64 noundef %4) #15
  br label %SlruFileName.exit

17:                                               ; preds = %2
  %18 = trunc i64 %4 to i32
  %19 = call i32 (ptr, i64, ptr, ...) @pg_snprintf(ptr noundef nonnull %3, i64 noundef 1024, ptr noundef nonnull @.str.6, ptr noundef nonnull %14, i32 noundef %18) #15
  br label %SlruFileName.exit

SlruFileName.exit:                                ; preds = %15, %17
  %20 = call i32 @OpenTransientFile(ptr noundef nonnull %3, i32 noundef 0) #15
  %21 = icmp slt i32 %20, 0
  br i1 %21, label %22, label %27

22:                                               ; preds = %SlruFileName.exit
  %23 = tail call ptr @__errno_location() #16
  %24 = load i32, ptr %23, align 4
  %25 = icmp eq i32 %24, 2
  br i1 %25, label %42, label %26

26:                                               ; preds = %22
  store i32 0, ptr @slru_errcause, align 4
  store i32 %24, ptr @slru_errno, align 4
  call fastcc void @SlruReportIOError(ptr noundef nonnull %0, i64 noundef %1, i32 noundef 0)
  br label %27

27:                                               ; preds = %26, %SlruFileName.exit
  %28 = call i64 @lseek(i32 noundef %20, i64 noundef 0, i32 noundef 2) #15
  %29 = icmp slt i64 %28, 0
  br i1 %29, label %30, label %33

30:                                               ; preds = %27
  store i32 1, ptr @slru_errcause, align 4
  %31 = tail call ptr @__errno_location() #16
  %32 = load i32, ptr %31, align 4
  store i32 %32, ptr @slru_errno, align 4
  call fastcc void @SlruReportIOError(ptr noundef nonnull %0, i64 noundef %1, i32 noundef 0)
  br label %33

33:                                               ; preds = %30, %27
  %34 = call i32 @CloseTransientFile(i32 noundef %20) #15
  %.not = icmp eq i32 %34, 0
  br i1 %.not, label %38, label %35

35:                                               ; preds = %33
  store i32 5, ptr @slru_errcause, align 4
  %36 = tail call ptr @__errno_location() #16
  %37 = load i32, ptr %36, align 4
  store i32 %37, ptr @slru_errno, align 4
  br label %42

38:                                               ; preds = %33
  %39 = add nsw i32 %7, 8192
  %40 = sext i32 %39 to i64
  %41 = icmp sge i64 %28, %40
  br label %42

42:                                               ; preds = %22, %38, %35
  %.0 = phi i1 [ false, %35 ], [ %41, %38 ], [ false, %22 ]
  call void @llvm.lifetime.end.p0(i64 1024, ptr nonnull %3) #15
  ret i1 %.0
}